target datalayout = "e-m:e-p270:32:32-p271:32:32-p272:64:64-i64:64-i128:128-f80:128-n8:16:32:64-S128"
target triple = "x86_64-pc-linux-gnu"

%struct.raxIterator = type { i32, ptr, ptr, ptr, i64, i64, [128 x i8], ptr, %struct.raxStack, ptr }
%struct.raxStack = type { ptr, i64, i64, [32 x ptr], i32 }

@.str = private unnamed_addr constant [2 x i8] c"^\00", align 1
@.str.11 = private unnamed_addr constant [2 x i8] c"*\00", align 1
@.str.12 = private unnamed_addr constant [3 x i8] c"\0D\0A\00", align 1
@.str.13 = private unnamed_addr constant [2 x i8] c"$\00", align 1

; Function Attrs: nounwind uwtable
define dso_local ptr @trackingBuildBroadcastReply(ptr noundef %0, ptr noundef %1) #0 {
  %3 = alloca ptr, align 8
  %4 = alloca ptr, align 8
  %5 = alloca ptr, align 8
  %6 = alloca %struct.raxIterator, align 8
  %7 = alloca i64, align 8
  %8 = alloca i32, align 4
  %9 = alloca [32 x i8], align 16
  %10 = alloca i64, align 8
  %11 = alloca ptr, align 8
  store ptr %0, ptr %4, align 8, !tbaa !5
  store ptr %1, ptr %5, align 8, !tbaa !31
  call void @llvm.lifetime.start.p0(i64 480, ptr %6) #10
  call void @llvm.lifetime.start.p0(i64 8, ptr %7) #10
  %12 = load ptr, ptr %4, align 8, !tbaa !5
  %13 = icmp eq ptr %12, null
  br i1 %13, label %14, label %17

14:                                               ; preds = %2
  %15 = load ptr, ptr %5, align 8, !tbaa !31
  %16 = call i64 @raxSize(ptr noundef %15)
  store i64 %16, ptr %7, align 8, !tbaa !67
  br label %37

17:                                               ; preds = %2
  store i64 0, ptr %7, align 8, !tbaa !67
  %18 = load ptr, ptr %5, align 8, !tbaa !31
  call void @raxStart(ptr noundef %6, ptr noundef %18)
  %19 = call i32 @raxSeek(ptr noundef %6, ptr noundef @.str, ptr noundef null, i64 noundef 0)
  br label %20

20:                                               ; preds = %31, %17
  %21 = call i32 @raxNext(ptr noundef %6)
  %22 = icmp ne i32 %21, 0
  br i1 %22, label %23, label %32

23:                                               ; preds = %20
  %24 = getelementptr inbounds nuw %struct.raxIterator, ptr %6, i32 0, i32 3
  %25 = load ptr, ptr %24, align 8, !tbaa !105
  %26 = load ptr, ptr %4, align 8, !tbaa !5
  %27 = icmp ne ptr %25, %26
  br i1 %27, label %28, label %31

28:                                               ; preds = %23
  %29 = load i64, ptr %7, align 8, !tbaa !67
  %30 = add i64 %29, 1
  store i64 %30, ptr %7, align 8, !tbaa !67
  br label %31

31:                                               ; preds = %28, %23
  br label %20, !llvm.loop !119

32:                                               ; preds = %20
  call void @raxStop(ptr noundef %6)
  %33 = load i64, ptr %7, align 8, !tbaa !67
  %34 = icmp eq i64 %33, 0
  br i1 %34, label %35, label %36

35:                                               ; preds = %32
  store ptr null, ptr %3, align 8
  store i32 1, ptr %8, align 4
  br label %93

36:                                               ; preds = %32
  br label %37

37:                                               ; preds = %36, %14
  call void @llvm.lifetime.start.p0(i64 32, ptr %9) #10
  call void @llvm.lifetime.start.p0(i64 8, ptr %10) #10
  %38 = getelementptr inbounds [32 x i8], ptr %9, i64 0, i64 0
  %39 = load i64, ptr %7, align 8, !tbaa !67
  %40 = call i32 @ll2string(ptr noundef %38, i64 noundef 32, i64 noundef %39)
  %41 = sext i32 %40 to i64
  store i64 %41, ptr %10, align 8, !tbaa !67
  call void @llvm.lifetime.start.p0(i64 8, ptr %11) #10
  %42 = call ptr @sdsempty()
  store ptr %42, ptr %11, align 8, !tbaa !71
  %43 = load ptr, ptr %11, align 8, !tbaa !71
  %44 = load i64, ptr %7, align 8, !tbaa !67
  %45 = mul i64 %44, 15
  %46 = call ptr @sdsMakeRoomFor(ptr noundef %43, i64 noundef %45)
  store ptr %46, ptr %11, align 8, !tbaa !71
  %47 = load ptr, ptr %11, align 8, !tbaa !71
  %48 = call ptr @sdscatlen(ptr noundef %47, ptr noundef @.str.11, i64 noundef 1)
  store ptr %48, ptr %11, align 8, !tbaa !71
  %49 = load ptr, ptr %11, align 8, !tbaa !71
  %50 = getelementptr inbounds [32 x i8], ptr %9, i64 0, i64 0
  %51 = load i64, ptr %10, align 8, !tbaa !67
  %52 = call ptr @sdscatlen(ptr noundef %49, ptr noundef %50, i64 noundef %51)
  store ptr %52, ptr %11, align 8, !tbaa !71
  %53 = load ptr, ptr %11, align 8, !tbaa !71
  %54 = call ptr @sdscatlen(ptr noundef %53, ptr noundef @.str.12, i64 noundef 2)
  store ptr %54, ptr %11, align 8, !tbaa !71
  %55 = load ptr, ptr %5, align 8, !tbaa !31
  call void @raxStart(ptr noundef %6, ptr noundef %55)
  %56 = call i32 @raxSeek(ptr noundef %6, ptr noundef @.str, ptr noundef null, i64 noundef 0)
  br label %57

57:                                               ; preds = %69, %68, %37
  %58 = call i32 @raxNext(ptr noundef %6)
  %59 = icmp ne i32 %58, 0
  br i1 %59, label %60, label %91

60:                                               ; preds = %57
  %61 = load ptr, ptr %4, align 8, !tbaa !5
  %62 = icmp ne ptr %61, null
  br i1 %62, label %63, label %69

63:                                               ; preds = %60
  %64 = getelementptr inbounds nuw %struct.raxIterator, ptr %6, i32 0, i32 3
  %65 = load ptr, ptr %64, align 8, !tbaa !105
  %66 = load ptr, ptr %4, align 8, !tbaa !5
  %67 = icmp eq ptr %65, %66
  br i1 %67, label %68, label %69

68:                                               ; preds = %63
  br label %57, !llvm.loop !120

69:                                               ; preds = %63, %60
  %70 = getelementptr inbounds [32 x i8], ptr %9, i64 0, i64 0
  %71 = getelementptr inbounds nuw %struct.raxIterator, ptr %6, i32 0, i32 4
  %72 = load i64, ptr %71, align 8, !tbaa !36
  %73 = call i32 @ll2string(ptr noundef %70, i64 noundef 32, i64 noundef %72)
  %74 = sext i32 %73 to i64
  store i64 %74, ptr %10, align 8, !tbaa !67
  %75 = load ptr, ptr %11, align 8, !tbaa !71
  %76 = call ptr @sdscatlen(ptr noundef %75, ptr noundef @.str.13, i64 noundef 1)
  store ptr %76, ptr %11, align 8, !tbaa !71
  %77 = load ptr, ptr %11, align 8, !tbaa !71
  %78 = getelementptr inbounds [32 x i8], ptr %9, i64 0, i64 0
  %79 = load i64, ptr %10, align 8, !tbaa !67
  %80 = call ptr @sdscatlen(ptr noundef %77, ptr noundef %78, i64 noundef %79)
  store ptr %80, ptr %11, align 8, !tbaa !71
  %81 = load ptr, ptr %11, align 8, !tbaa !71
  %82 = call ptr @sdscatlen(ptr noundef %81, ptr noundef @.str.12, i64 noundef 2)
  store ptr %82, ptr %11, align 8, !tbaa !71
  %83 = load ptr, ptr %11, align 8, !tbaa !71
  %84 = getelementptr inbounds nuw %struct.raxIterator, ptr %6, i32 0, i32 2
  %85 = load ptr, ptr %84, align 8, !tbaa !32
  %86 = getelementptr inbounds nuw %struct.raxIterator, ptr %6, i32 0, i32 4
  %87 = load i64, ptr %86, align 8, !tbaa !36
  %88 = call ptr @sdscatlen(ptr noundef %83, ptr noundef %85, i64 noundef %87)
  store ptr %88, ptr %11, align 8, !tbaa !71
  %89 = load ptr, ptr %11, align 8, !tbaa !71
  %90 = call ptr @sdscatlen(ptr noundef %89, ptr noundef @.str.12, i64 noundef 2)
  store ptr %90, ptr %11, align 8, !tbaa !71
  br label %57, !llvm.loop !120

91:                                               ; preds = %57
  call void @raxStop(ptr noundef %6)
  %92 = load ptr, ptr %11, align 8, !tbaa !71
  store ptr %92, ptr %3, align 8
  store i32 1, ptr %8, align 4
  call void @llvm.lifetime.end.p0(i64 8, ptr %11) #10
  call void @llvm.lifetime.end.p0(i64 8, ptr %10) #10
  call void @llvm.lifetime.end.p0(i64 32, ptr %9) #10
  br label %93

93:                                               ; preds = %91, %35
  call void @llvm.lifetime.end.p0(i64 8, ptr %7) #10
  call void @llvm.lifetime.end.p0(i64 480, ptr %6) #10
  %94 = load ptr, ptr %3, align 8
  ret ptr %94
}