; Function Attrs: nounwind uwtable
define dso_local ptr @trackingBuildBroadcastReply(ptr noundef readnone captures(address) %0, ptr noundef %1) local_unnamed_addr #0 {
  %3 = alloca %struct.raxIterator, align 8
  %4 = alloca [32 x i8], align 16
  call void @llvm.lifetime.start.p0(i64 480, ptr nonnull %3) #9
  %5 = icmp eq ptr %0, null
  br i1 %5, label %6, label %8

6:                                                ; preds = %2
  %7 = tail call i64 @raxSize(ptr noundef %1) #9
  br label %17

8:                                                ; preds = %2
  call void @raxStart(ptr noundef nonnull %3, ptr noundef %1) #9
  %9 = call i32 @raxSeek(ptr noundef nonnull %3, ptr noundef nonnull @.str, ptr noundef null, i64 noundef 0) #9
  %10 = call i32 @raxNext(ptr noundef nonnull %3) #9
  %.not32 = icmp eq i32 %10, 0
  br i1 %.not32, label %._crit_edge.thread, label %.lr.ph

._crit_edge.thread:                               ; preds = %8
  call void @raxStop(ptr noundef nonnull %3) #9
  br label %57

.lr.ph:                                           ; preds = %8
  %11 = getelementptr inbounds nuw i8, ptr %3, i64 24
  br label %12

12:                                               ; preds = %.lr.ph, %12
  %.133 = phi i64 [ 0, %.lr.ph ], [ %spec.select, %12 ]
  %13 = load ptr, ptr %11, align 8, !tbaa !100
  %.not27 = icmp ne ptr %13, %0
  %14 = zext i1 %.not27 to i64
  %spec.select = add i64 %.133, %14
  %15 = call i32 @raxNext(ptr noundef nonnull %3) #9
  %.not = icmp eq i32 %15, 0
  br i1 %.not, label %._crit_edge, label %12, !llvm.loop !112

._crit_edge:                                      ; preds = %12
  call void @raxStop(ptr noundef nonnull %3) #9
  %16 = icmp eq i64 %spec.select, 0
  br i1 %16, label %57, label %17

17:                                               ; preds = %._crit_edge, %6
  %.023 = phi i64 [ %7, %6 ], [ %spec.select, %._crit_edge ]
  call void @llvm.lifetime.start.p0(i64 32, ptr nonnull %4) #9
  %18 = call i32 @ll2string(ptr noundef nonnull %4, i64 noundef 32, i64 noundef %.023) #9
  %19 = sext i32 %18 to i64
  %20 = call ptr @sdsempty() #9
  %21 = mul i64 %.023, 15
  %22 = call ptr @sdsMakeRoomFor(ptr noundef %20, i64 noundef %21) #9
  %23 = call ptr @sdscatlen(ptr noundef %22, ptr noundef nonnull @.str.11, i64 noundef 1) #9
  %24 = call ptr @sdscatlen(ptr noundef %23, ptr noundef nonnull %4, i64 noundef %19) #9
  %25 = call ptr @sdscatlen(ptr noundef %24, ptr noundef nonnull @.str.12, i64 noundef 2) #9
  call void @raxStart(ptr noundef nonnull %3, ptr noundef %1) #9
  %26 = call i32 @raxSeek(ptr noundef nonnull %3, ptr noundef nonnull @.str, ptr noundef null, i64 noundef 0) #9
  %27 = getelementptr inbounds nuw i8, ptr %3, i64 24
  %28 = getelementptr inbounds nuw i8, ptr %3, i64 32
  %29 = getelementptr inbounds nuw i8, ptr %3, i64 16
  br i1 %5, label %.split36, label %.outer.us

.outer.us:                                        ; preds = %17, %.split35.us37
  %.0.ph.us = phi ptr [ %42, %.split35.us37 ], [ %25, %17 ]
  br label %43

30:                                               ; preds = %43
  %31 = load ptr, ptr %27, align 8
  %32 = icmp eq ptr %31, %0
  br i1 %32, label %43, label %.split35.us37, !llvm.loop !113

.split35.us37:                                    ; preds = %30
  %33 = load i64, ptr %28, align 8, !tbaa !36
  %34 = call i32 @ll2string(ptr noundef nonnull %4, i64 noundef 32, i64 noundef %33) #9
  %35 = sext i32 %34 to i64
  %36 = call ptr @sdscatlen(ptr noundef %.0.ph.us, ptr noundef nonnull @.str.13, i64 noundef 1) #9
  %37 = call ptr @sdscatlen(ptr noundef %36, ptr noundef nonnull %4, i64 noundef %35) #9
  %38 = call ptr @sdscatlen(ptr noundef %37, ptr noundef nonnull @.str.12, i64 noundef 2) #9
  %39 = load ptr, ptr %29, align 8, !tbaa !32
  %40 = load i64, ptr %28, align 8, !tbaa !36
  %41 = call ptr @sdscatlen(ptr noundef %38, ptr noundef %39, i64 noundef %40) #9
  %42 = call ptr @sdscatlen(ptr noundef %41, ptr noundef nonnull @.str.12, i64 noundef 2) #9
  br label %.outer.us, !llvm.loop !113

43:                                               ; preds = %.outer.us, %30
  %44 = call i32 @raxNext(ptr noundef nonnull %3) #9
  %.not28.us38 = icmp eq i32 %44, 0
  br i1 %.not28.us38, label %.split.us, label %30

.split36:                                         ; preds = %17
  %45 = call i32 @raxNext(ptr noundef nonnull %3) #9
  %.not28.us42 = icmp eq i32 %45, 0
  br i1 %.not28.us42, label %.split.us, label %.split35.us

.split35.us:                                      ; preds = %.split36, %.split35.us
  %.0.ph43 = phi ptr [ %55, %.split35.us ], [ %25, %.split36 ]
  %46 = load i64, ptr %28, align 8, !tbaa !36
  %47 = call i32 @ll2string(ptr noundef nonnull %4, i64 noundef 32, i64 noundef %46) #9
  %48 = sext i32 %47 to i64
  %49 = call ptr @sdscatlen(ptr noundef %.0.ph43, ptr noundef nonnull @.str.13, i64 noundef 1) #9
  %50 = call ptr @sdscatlen(ptr noundef %49, ptr noundef nonnull %4, i64 noundef %48) #9
  %51 = call ptr @sdscatlen(ptr noundef %50, ptr noundef nonnull @.str.12, i64 noundef 2) #9
  %52 = load ptr, ptr %29, align 8, !tbaa !32
  %53 = load i64, ptr %28, align 8, !tbaa !36
  %54 = call ptr @sdscatlen(ptr noundef %51, ptr noundef %52, i64 noundef %53) #9
  %55 = call ptr @sdscatlen(ptr noundef %54, ptr noundef nonnull @.str.12, i64 noundef 2) #9
  %56 = call i32 @raxNext(ptr noundef nonnull %3) #9
  %.not28.us = icmp eq i32 %56, 0
  br i1 %.not28.us, label %.split.us, label %.split35.us, !llvm.loop !113

.split.us:                                        ; preds = %43, %.split35.us, %.split36
  %.us-phi = phi ptr [ %25, %.split36 ], [ %55, %.split35.us ], [ %.0.ph.us, %43 ]
  call void @raxStop(ptr noundef nonnull %3) #9
  call void @llvm.lifetime.end.p0(i64 32, ptr nonnull %4) #9
  br label %57

57:                                               ; preds = %._crit_edge.thread, %._crit_edge, %.split.us
  %.024 = phi ptr [ %.us-phi, %.split.us ], [ null, %._crit_edge ], [ null, %._crit_edge.thread ]
  call void @llvm.lifetime.end.p0(i64 480, ptr nonnull %3) #9
  ret ptr %.024
}